target datalayout = "e-m:e-p270:32:32-p271:32:32-p272:64:64-i64:64-i128:128-f80:128-n8:16:32:64-S128"
target triple = "x86_64-pc-linux-gnu"

%struct.htbl_t = type { i64, i64, i64, i64 }

@H5PT_ptable_id_type = internal global i32 -2, align 4

; Function Attrs: nounwind uwtable
define internal i32 @H5PT_get_index(ptr noundef %0, ptr noundef %1) #0 {
  %3 = alloca i32, align 4
  %4 = alloca ptr, align 8
  %5 = alloca ptr, align 8
  store ptr %0, ptr %4, align 8, !tbaa !10
  store ptr %1, ptr %5, align 8, !tbaa !23
  %6 = load ptr, ptr %4, align 8, !tbaa !10
  %7 = icmp ne ptr %6, null
  br i1 %7, label %8, label %17

8:                                                ; preds = %2
  %9 = load ptr, ptr %5, align 8, !tbaa !23
  %10 = icmp ne ptr %9, null
  br i1 %10, label %11, label %16

11:                                               ; preds = %8
  %12 = load ptr, ptr %4, align 8, !tbaa !10
  %13 = getelementptr inbounds nuw %struct.htbl_t, ptr %12, i32 0, i32 2
  %14 = load i64, ptr %13, align 8, !tbaa !21
  %15 = load ptr, ptr %5, align 8, !tbaa !23
  store i64 %14, ptr %15, align 8, !tbaa !3
  br label %16

16:                                               ; preds = %11, %8
  store i32 0, ptr %3, align 4
  br label %18

17:                                               ; preds = %2
  store i32 -1, ptr %3, align 4
  br label %18

18:                                               ; preds = %17, %16
  %19 = load i32, ptr %3, align 4
  ret i32 %19
}

; Function Attrs: nounwind uwtable
define i32 @H5PTget_index(i64 noundef %0, ptr noundef %1) #0 {
  %3 = alloca i32, align 4
  %4 = alloca i64, align 8
  %5 = alloca ptr, align 8
  %6 = alloca ptr, align 8
  %7 = alloca i32, align 4
  store i64 %0, ptr %4, align 8, !tbaa !3
  store ptr %1, ptr %5, align 8, !tbaa !23
  call void @llvm.lifetime.start.p0(i64 8, ptr %6) #6
  %8 = load i64, ptr %4, align 8, !tbaa !3
  %9 = load i32, ptr @H5PT_ptable_id_type, align 4, !tbaa !11
  %10 = call ptr @H5Iobject_verify(i64 noundef %8, i32 noundef %9)
  store ptr %10, ptr %6, align 8, !tbaa !10
  %11 = icmp eq ptr %10, null
  br i1 %11, label %12, label %13

12:                                               ; preds = %2
  store i32 -1, ptr %3, align 4
  store i32 1, ptr %7, align 4
  br label %17

13:                                               ; preds = %2
  %14 = load ptr, ptr %6, align 8, !tbaa !10
  %15 = load ptr, ptr %5, align 8, !tbaa !23
  %16 = call i32 @H5PT_get_index(ptr noundef %14, ptr noundef %15)
  store i32 %16, ptr %3, align 4
  store i32 1, ptr %7, align 4
  br label %17

17:                                               ; preds = %13, %12
  call void @llvm.lifetime.end.p0(i64 8, ptr %6) #6
  %18 = load i32, ptr %3, align 4
  ret i32 %18
}