; Function Attrs: nounwind uwtable
define range(i32 -1, 1) i32 @H5PTget_index(i64 noundef %0, ptr noundef writeonly captures(address_is_null) %1) local_unnamed_addr #0 {
  %3 = load i32, ptr @H5PT_ptable_id_type, align 4, !tbaa !3
  %4 = tail call ptr @H5Iobject_verify(i64 noundef %0, i32 noundef %3) #7
  %5 = icmp eq ptr %4, null
  br i1 %5, label %H5PT_get_index.exit, label %6

6:                                                ; preds = %2
  %.not.i = icmp eq ptr %1, null
  br i1 %.not.i, label %H5PT_get_index.exit, label %7

7:                                                ; preds = %6
  %8 = getelementptr inbounds nuw i8, ptr %4, i64 16
  %9 = load i64, ptr %8, align 8, !tbaa !20
  store i64 %9, ptr %1, align 8, !tbaa !7
  br label %H5PT_get_index.exit

H5PT_get_index.exit:                              ; preds = %7, %6, %2
  %.0 = phi i32 [ -1, %2 ], [ 0, %6 ], [ 0, %7 ]
  ret i32 %.0
}